target datalayout = "e-m:e-p270:32:32-p271:32:32-p272:64:64-i64:64-i128:128-f80:128-n8:16:32:64-S128"
target triple = "x86_64-pc-linux-gnu"

%struct.mpd_context_t = type { i64, i64, i64, i32, i32, i32, i32, i32, i32 }

; Function Attrs: nounwind uwtable
define hidden void @mpd_qset_string_exact(ptr noundef %0, ptr noundef %1, ptr noundef %2) #0 {
  %4 = alloca ptr, align 8
  %5 = alloca ptr, align 8
  %6 = alloca ptr, align 8
  %7 = alloca %struct.mpd_context_t, align 8
  store ptr %0, ptr %4, align 8, !tbaa !3
  store ptr %1, ptr %5, align 8, !tbaa !8
  store ptr %2, ptr %6, align 8, !tbaa !12
  call void @llvm.lifetime.start.p0(i64 48, ptr %7) #10
  call void @mpd_maxcontext(ptr noundef %7)
  %8 = load ptr, ptr %4, align 8, !tbaa !3
  %9 = load ptr, ptr %5, align 8, !tbaa !8
  %10 = load ptr, ptr %6, align 8, !tbaa !12
  call void @mpd_qset_string(ptr noundef %8, ptr noundef %9, ptr noundef %7, ptr noundef %10)
  %11 = load ptr, ptr %6, align 8, !tbaa !12
  %12 = load i32, ptr %11, align 4, !tbaa !25
  %13 = and i32 %12, 4161
  %14 = icmp ne i32 %13, 0
  br i1 %14, label %15, label %18

15:                                               ; preds = %3
  %16 = load ptr, ptr %4, align 8, !tbaa !3
  %17 = load ptr, ptr %6, align 8, !tbaa !12
  call void @mpd_seterror(ptr noundef %16, i32 noundef 256, ptr noundef %17)
  br label %18

18:                                               ; preds = %15, %3
  %19 = load ptr, ptr %6, align 8, !tbaa !12
  %20 = load i32, ptr %19, align 4, !tbaa !25
  %21 = and i32 %20, 958
  store i32 %21, ptr %19, align 4, !tbaa !25
  call void @llvm.lifetime.end.p0(i64 48, ptr %7) #10
  ret void
}