; Function Attrs: nounwind uwtable
define hidden void @mpd_qset_string_exact(ptr noundef %0, ptr noundef %1, ptr noundef %2) local_unnamed_addr #0 {
  %4 = alloca %struct.mpd_context_t, align 8
  call void @llvm.lifetime.start.p0(i64 48, ptr nonnull %4) #18
  call void @mpd_maxcontext(ptr noundef nonnull %4) #18
  call void @mpd_qset_string(ptr noundef %0, ptr noundef %1, ptr noundef nonnull %4, ptr noundef %2)
  %5 = load i32, ptr %2, align 4, !tbaa !25
  %6 = and i32 %5, 4161
  %.not = icmp eq i32 %6, 0
  br i1 %.not, label %8, label %7

7:                                                ; preds = %3
  call void @mpd_seterror(ptr noundef %0, i32 noundef 256, ptr noundef nonnull %2) #18
  %.pre = load i32, ptr %2, align 4, !tbaa !25
  br label %8

8:                                                ; preds = %7, %3
  %9 = phi i32 [ %.pre, %7 ], [ %5, %3 ]
  %10 = and i32 %9, 958
  store i32 %10, ptr %2, align 4, !tbaa !25
  call void @llvm.lifetime.end.p0(i64 48, ptr nonnull %4) #18
  ret void
}